Certificate:
    Data:
        Version: 3 (0x2)
        Serial Number: 1 (0x1)
    Signature Algorithm: sha256WithRSAEncryption
        Issuer: C=US, ST=Unset, L=Unset, O=Unset, CN=www.example.com
        Validity
            Not Before: Jun  8 23:25:37 2015 GMT
            Not After : Jun  5 23:25:37 2025 GMT
        Subject: C=US, ST=Unset, O=Unset, CN=www.example.com
        Subject Public Key Info:
            Public Key Algorithm: rsaEncryption
                Public-Key: (2048 bit)
                Modulus:
                    00:b9:0a:e0:4c:ae:ca:1c:57:b0:a0:c7:7c:01:d8:
                    0a:c9:c5:5a:af:0d:f2:6b:ff:56:d5:86:ca:1c:e2:
                    b7:44:c8:b5:5e:da:8c:74:ca:b6:74:1b:57:8b:65:
                    54:5b:16:04:61:4f:af:c0:65:ef:9d:48:c5:69:01:
                    d4:28:ba:c6:9f:72:ec:11:ab:6a:f3:cc:3b:77:bf:
                    31:94:ad:11:14:29:e9:f0:50:c0:23:70:f5:fb:3e:
                    22:6f:60:e1:57:36:85:1f:86:63:54:ff:f2:d7:42:
                    10:d9:86:23:fb:cf:dc:36:71:a2:4a:76:93:76:77:
                    4d:ed:f8:3f:d0:ae:0a:93:57:d8:e8:24:18:af:d1:
                    d6:aa:b8:81:7f:68:a0:57:46:9f:3f:90:47:1d:5f:
                    78:ce:2f:ea:a3:86:2a:b8:d0:12:70:57:83:28:65:
                    93:a0:af:b2:cb:46:69:9c:b5:1b:77:e1:a3:e5:1b:
                    31:09:fb:12:97:74:bd:cb:95:5d:b5:06:78:4d:0c:
                    5a:5a:2e:16:29:df:ca:9b:d9:ea:b5:98:b2:ab:3b:
                    c9:56:ea:07:e4:ea:6b:63:fe:96:53:da:42:80:9a:
                    19:80:8e:90:ba:cb:8d:a6:87:50:d4:bc:72:3d:5d:
                    d8:e7:94:e5:83:06:79:26:1b:67:5d:fb:a6:29:e9:
                    93:bb
                Exponent: 65537 (0x10001)
        X509v3 extensions:
            X509v3 Basic Constraints: 
                CA:FALSE
            X509v3 Subject Key Identifier: 
                CF:31:E9:A1:5F:2A:3E:3D:1F:14:4B:51:1E:7C:27:60:25:2E:A1:81
            X509v3 Authority Key Identifier: 
                keyid:89:BA:06:07:49:53:FD:7B:9A:FB:27:1B:EC:95:3D:1B:7B:23:E6:E7

    Signature Algorithm: sha256WithRSAEncryption
         0e:bf:1b:4e:18:80:39:f5:fe:61:1c:21:cf:ca:58:37:09:4d:
         70:56:25:c3:d6:df:15:6f:fb:45:e5:31:e1:a1:92:d9:cb:ab:
         bf:c4:ba:52:68:c6:9a:35:60:4f:07:4f:2c:9f:eb:14:37:46:
         5b:cb:94:5e:57:e9:a5:00:1e:66:87:2e:4c:21:86:6f:62:fd:
         a8:b2:f0:ca:6c:3e:63:21:fc:30:d4:cf:9a:32:d1:6a:69:71:
         41:6f:2d:c7:89:90:1e:25:b8:3c:08:ec:f9:fc:e3:0f:68:ea:
         22:25:08:ba:69:40:2e:91:ba:88:ad:ca:8a:f5:16:f5:e2:6d:
         15:60:cd:6b:c8:2f:a0:f6:da:41:b4:57:76:6e:c3:93:26:de:
         92:44:51:62:5a:1a:60:24:61:1b:d0:89:11:8a:eb:9c:d1:d2:
         38:e4:d4:eb:02:3e:02:47:ea:91:20:b8:15:00:ac:f8:f4:cf:
         da:ec:cc:72:24:05:a2:44:d6:ab:a6:e6:5c:28:fe:cc:ac:18:
         c6:19:a9:e6:10:b2:37:6d:46:23:8b:98:55:be:33:fd:7a:11:
         7c:21:04:c4:63:f8:ef:cc:98:36:e8:2e:10:87:fa:40:1e:4d:
         6e:ff:42:3c:cb:4f:ee:19:9d:98:d3:d2:ed:ec:41:69:10:be:
         d1:cd:a0:89
-----BEGIN CERTIFICATE-----
MIIDZjCCAk6gAwIBAgIBATANBgkqhkiG9w0BAQsFADBXMQswCQYDVQQGEwJVUzEO
MAwGA1UECAwFVW5zZXQxDjAMBgNVBAcMBVVuc2V0MQ4wDAYDVQQKDAVVbnNldDEY
MBYGA1UEAwwPd3d3LmV4YW1wbGUuY29tMB4XDTE1MDYwODIzMjUzN1oXDTI1MDYw
NTIzMjUzN1owRzELMAkGA1UEBhMCVVMxDjAMBgNVBAgMBVVuc2V0MQ4wDAYDVQQK
DAVVbnNldDEYMBYGA1UEAwwPd3d3LmV4YW1wbGUuY29tMIIBIjANBgkqhkiG9w0B
AQEFAAOCAQ8AMIIBCgKCAQEAuQrgTK7KHFewoMd8AdgKycVarw3ya/9W1YbKHOK3
RMi1XtqMdMq2dBtXi2VUWxYEYU+vwGXvnUjFaQHUKLrGn3LsEatq88w7d78xlK0R
FCnp8FDAI3D1+z4ib2DhVzaFH4ZjVP/y10IQ2YYj+8/cNnGiSnaTdndN7fg/0K4K
k1fY6CQYr9HWqriBf2igV0afP5BHHV94zi/qo4YquNAScFeDKGWToK+yy0ZpnLUb
d+Gj5RsxCfsSl3S9y5VdtQZ4TQxaWi4WKd/Km9nqtZiyqzvJVuoH5OprY/6WU9pC
gJoZgI6QusuNpodQ1LxyPV3Y55TlgwZ5JhtnXfumKemTuwIDAQABo00wSzAJBgNV
HRMEAjAAMB0GA1UdDgQWBBTPMemhXyo+PR8US1EefCdgJS6hgTAfBgNVHSMEGDAW
gBSJugYHSVP9e5r7JxvslT0beyPm5zANBgkqhkiG9w0BAQsFAAOCAQEADr8bThiA
OfX+YRwhz8pYNwlNcFYlw9bfFW/7ReUx4aGS2curv8S6UmjGmjVgTwdPLJ/rFDdG
W8uUXlfppQAeZocuTCGGb2L9qLLwymw+YyH8MNTPmjLRamlxQW8tx4mQHiW4PAjs
+fzjD2jqIiUIumlALpG6iK3KivUW9eJtFWDNa8gvoPbaQbRXdm7DkybekkRRYloa
YCRhG9CJEYrrnNHSOOTU6wI+AkfqkSC4FQCs+PTP2uzMciQFokTWq6bmXCj+zKwY
xhmp5hCyN21GI4uYVb4z/XoRfCEExGP478yYNuguEIf6QB5Nbv9CPMtP7hmdmNPS
7exBaRC+0c2giQ==
-----END CERTIFICATE-----
